target datalayout = "e-m:e-p270:32:32-p271:32:32-p272:64:64-i64:64-i128:128-f80:128-n8:16:32:64-S128"
target triple = "x86_64-pc-linux-gnu"

@.str.12 = private unnamed_addr constant [18 x i8] c"still in progress\00", align 1
@.str.13 = private unnamed_addr constant [15 x i8] c"top-N heapsort\00", align 1
@.str.14 = private unnamed_addr constant [10 x i8] c"quicksort\00", align 1
@.str.15 = private unnamed_addr constant [14 x i8] c"external sort\00", align 1
@.str.16 = private unnamed_addr constant [15 x i8] c"external merge\00", align 1
@.str.17 = private unnamed_addr constant [8 x i8] c"unknown\00", align 1

; Function Attrs: nounwind uwtable
define dso_local ptr @tuplesort_method_name(i32 noundef %0) #0 {
  %2 = alloca ptr, align 8
  %3 = alloca i32, align 4
  store i32 %0, ptr %3, align 4
  %4 = load i32, ptr %3, align 4
  switch i32 %4, label %10 [
    i32 0, label %5
    i32 1, label %6
    i32 2, label %7
    i32 4, label %8
    i32 8, label %9
  ]

5:                                                ; preds = %1
  store ptr @.str.12, ptr %2, align 8
  br label %11

6:                                                ; preds = %1
  store ptr @.str.13, ptr %2, align 8
  br label %11

7:                                                ; preds = %1
  store ptr @.str.14, ptr %2, align 8
  br label %11

8:                                                ; preds = %1
  store ptr @.str.15, ptr %2, align 8
  br label %11

9:                                                ; preds = %1
  store ptr @.str.16, ptr %2, align 8
  br label %11

10:                                               ; preds = %1
  store ptr @.str.17, ptr %2, align 8
  br label %11

11:                                               ; preds = %10, %9, %8, %7, %6, %5
  %12 = load ptr, ptr %2, align 8
  ret ptr %12
}